target datalayout = "e-m:e-p270:32:32-p271:32:32-p272:64:64-i64:64-i128:128-f80:128-n8:16:32:64-S128"
target triple = "x86_64-pc-linux-gnu"

%class.StackMapTable = type { i32, i32, ptr }
%class.streamIndentor = type <{ ptr, i32, [4 x i8] }>
%class.outputStream = type { ptr, i32, i8, i32, i64, %class.TimeStamp, ptr, i64 }
%class.TimeStamp = type { i64 }

@.str.6 = private unnamed_addr constant [32 x i8] c"StackMapTable: frame_count = %d\00", align 1
@.str.7 = private unnamed_addr constant [11 x i8] c"table = { \00", align 1
@.str.8 = private unnamed_addr constant [3 x i8] c" }\00", align 1

; Function Attrs: mustprogress nounwind uwtable
define linkonce_odr hidden void @_ZN12outputStream3decEi(ptr noundef nonnull align 8 dereferenceable(56) %0, i32 noundef %1) #1 comdat align 2 {
  %3 = alloca ptr, align 8
  %4 = alloca i32, align 4
  store ptr %0, ptr %3, align 8
  store i32 %1, ptr %4, align 4
  %5 = load ptr, ptr %3, align 8
  %6 = load i32, ptr %4, align 4
  %7 = getelementptr inbounds %class.outputStream, ptr %5, i32 0, i32 1
  %8 = load i32, ptr %7, align 8
  %9 = sub nsw i32 %8, %6
  store i32 %9, ptr %7, align 8
  ret void
}

; Function Attrs: mustprogress nounwind uwtable
define linkonce_odr hidden void @_ZN12outputStream3incEi(ptr noundef nonnull align 8 dereferenceable(56) %0, i32 noundef %1) #1 comdat align 2 {
  %3 = alloca ptr, align 8
  %4 = alloca i32, align 4
  store ptr %0, ptr %3, align 8
  store i32 %1, ptr %4, align 4
  %5 = load ptr, ptr %3, align 8
  %6 = load i32, ptr %4, align 4
  %7 = getelementptr inbounds %class.outputStream, ptr %5, i32 0, i32 1
  %8 = load i32, ptr %7, align 8
  %9 = add nsw i32 %8, %6
  store i32 %9, ptr %7, align 8
  ret void
}

; Function Attrs: mustprogress nounwind uwtable
define linkonce_odr hidden void @_ZN14streamIndentorD2Ev(ptr noundef nonnull align 8 dereferenceable(12) %0) unnamed_addr #1 comdat align 2 {
  %2 = alloca ptr, align 8
  store ptr %0, ptr %2, align 8
  %3 = load ptr, ptr %2, align 8
  %4 = getelementptr inbounds %class.streamIndentor, ptr %3, i32 0, i32 0
  %5 = load ptr, ptr %4, align 8
  %6 = getelementptr inbounds %class.streamIndentor, ptr %3, i32 0, i32 1
  %7 = load i32, ptr %6, align 8
  call void @_ZN12outputStream3decEi(ptr noundef nonnull align 8 dereferenceable(56) %5, i32 noundef %7)
  ret void
}

; Function Attrs: mustprogress nounwind uwtable
define linkonce_odr hidden void @_ZN14streamIndentorC2EP12outputStreami(ptr noundef nonnull align 8 dereferenceable(12) %0, ptr noundef %1, i32 noundef %2) unnamed_addr #1 comdat align 2 {
  %4 = alloca ptr, align 8
  %5 = alloca ptr, align 8
  %6 = alloca i32, align 4
  store ptr %0, ptr %4, align 8
  store ptr %1, ptr %5, align 8
  store i32 %2, ptr %6, align 4
  %7 = load ptr, ptr %4, align 8
  %8 = getelementptr inbounds %class.streamIndentor, ptr %7, i32 0, i32 0
  %9 = load ptr, ptr %5, align 8
  store ptr %9, ptr %8, align 8
  %10 = getelementptr inbounds %class.streamIndentor, ptr %7, i32 0, i32 1
  %11 = load i32, ptr %6, align 4
  store i32 %11, ptr %10, align 8
  %12 = getelementptr inbounds %class.streamIndentor, ptr %7, i32 0, i32 0
  %13 = load ptr, ptr %12, align 8
  %14 = getelementptr inbounds %class.streamIndentor, ptr %7, i32 0, i32 1
  %15 = load i32, ptr %14, align 8
  call void @_ZN12outputStream3incEi(ptr noundef nonnull align 8 dereferenceable(56) %13, i32 noundef %15)
  ret void
}

; Function Attrs: mustprogress nounwind uwtable
define hidden void @_ZNK13StackMapTable8print_onEP12outputStream(ptr noundef nonnull align 8 dereferenceable(16) %0, ptr noundef %1) #1 align 2 {
  %3 = alloca ptr, align 8
  %4 = alloca ptr, align 8
  %5 = alloca %class.streamIndentor, align 8
  %6 = alloca i32, align 4
  store ptr %0, ptr %3, align 8
  store ptr %1, ptr %4, align 8
  %7 = load ptr, ptr %3, align 8
  %8 = load ptr, ptr %4, align 8
  %9 = call noundef nonnull align 8 dereferenceable(56) ptr @_ZN12outputStream6indentEv(ptr noundef nonnull align 8 dereferenceable(56) %8)
  %10 = getelementptr inbounds %class.StackMapTable, ptr %7, i32 0, i32 1
  %11 = load i32, ptr %10, align 4
  call void (ptr, ptr, ...) @_ZN12outputStream8print_crEPKcz(ptr noundef nonnull align 8 dereferenceable(56) %9, ptr noundef @.str.6, i32 noundef %11)
  %12 = load ptr, ptr %4, align 8
  %13 = call noundef nonnull align 8 dereferenceable(56) ptr @_ZN12outputStream6indentEv(ptr noundef nonnull align 8 dereferenceable(56) %12)
  call void (ptr, ptr, ...) @_ZN12outputStream8print_crEPKcz(ptr noundef nonnull align 8 dereferenceable(56) %13, ptr noundef @.str.7)
  %14 = load ptr, ptr %4, align 8
  call void @_ZN14streamIndentorC2EP12outputStreami(ptr noundef nonnull align 8 dereferenceable(12) %5, ptr noundef %14, i32 noundef 2)
  store i32 0, ptr %6, align 4
  br label %15

15:                                               ; preds = %28, %2
  %16 = load i32, ptr %6, align 4
  %17 = getelementptr inbounds %class.StackMapTable, ptr %7, i32 0, i32 1
  %18 = load i32, ptr %17, align 4
  %19 = icmp slt i32 %16, %18
  br i1 %19, label %20, label %31

20:                                               ; preds = %15
  %21 = getelementptr inbounds %class.StackMapTable, ptr %7, i32 0, i32 2
  %22 = load ptr, ptr %21, align 8
  %23 = load i32, ptr %6, align 4
  %24 = sext i32 %23 to i64
  %25 = getelementptr inbounds ptr, ptr %22, i64 %24
  %26 = load ptr, ptr %25, align 8
  %27 = load ptr, ptr %4, align 8
  call void @_ZNK13StackMapFrame8print_onEP12outputStream(ptr noundef nonnull align 8 dereferenceable(48) %26, ptr noundef %27)
  br label %28

28:                                               ; preds = %20
  %29 = load i32, ptr %6, align 4
  %30 = add nsw i32 %29, 1
  store i32 %30, ptr %6, align 4
  br label %15, !llvm.loop !16

31:                                               ; preds = %15
  call void @_ZN14streamIndentorD2Ev(ptr noundef nonnull align 8 dereferenceable(12) %5) #6
  %32 = load ptr, ptr %4, align 8
  call void (ptr, ptr, ...) @_ZN12outputStream8print_crEPKcz(ptr noundef nonnull align 8 dereferenceable(56) %32, ptr noundef @.str.8)
  ret void
}