; Function Attrs: mustprogress nounwind uwtable
define hidden void @_ZNK13StackMapTable8print_onEP12outputStream(ptr nocapture noundef nonnull readonly align 8 dereferenceable(16) %0, ptr noundef nonnull %1) local_unnamed_addr #0 align 2 {
  %3 = tail call noundef nonnull align 8 dereferenceable(56) ptr @_ZN12outputStream6indentEv(ptr noundef nonnull align 8 dereferenceable(56) %1) #9
  %4 = getelementptr inbounds i8, ptr %0, i64 4
  %5 = load i32, ptr %4, align 4
  tail call void (ptr, ptr, ...) @_ZN12outputStream8print_crEPKcz(ptr noundef nonnull align 8 dereferenceable(56) %3, ptr noundef nonnull @.str.6, i32 noundef %5) #9
  %6 = tail call noundef nonnull align 8 dereferenceable(56) ptr @_ZN12outputStream6indentEv(ptr noundef nonnull align 8 dereferenceable(56) %1) #9
  tail call void (ptr, ptr, ...) @_ZN12outputStream8print_crEPKcz(ptr noundef nonnull align 8 dereferenceable(56) %6, ptr noundef nonnull @.str.7) #9
  %7 = getelementptr inbounds i8, ptr %1, i64 8
  %8 = load i32, ptr %7, align 8
  %9 = add nsw i32 %8, 2
  store i32 %9, ptr %7, align 8
  %10 = load i32, ptr %4, align 4
  %11 = icmp sgt i32 %10, 0
  br i1 %11, label %.lr.ph, label %._crit_edge

.lr.ph:                                           ; preds = %2
  %12 = getelementptr inbounds i8, ptr %0, i64 8
  br label %13

13:                                               ; preds = %.lr.ph, %13
  %indvars.iv = phi i64 [ 0, %.lr.ph ], [ %indvars.iv.next, %13 ]
  %14 = load ptr, ptr %12, align 8
  %15 = getelementptr inbounds ptr, ptr %14, i64 %indvars.iv
  %16 = load ptr, ptr %15, align 8
  tail call void @_ZNK13StackMapFrame8print_onEP12outputStream(ptr noundef nonnull align 8 dereferenceable(48) %16, ptr noundef nonnull %1) #9
  %indvars.iv.next = add nuw nsw i64 %indvars.iv, 1
  %17 = load i32, ptr %4, align 4
  %18 = sext i32 %17 to i64
  %19 = icmp slt i64 %indvars.iv.next, %18
  br i1 %19, label %13, label %._crit_edge.loopexit, !llvm.loop !19

._crit_edge.loopexit:                             ; preds = %13
  %.pre = load i32, ptr %7, align 8
  %20 = add nsw i32 %.pre, -2
  br label %._crit_edge

._crit_edge:                                      ; preds = %._crit_edge.loopexit, %2
  %21 = phi i32 [ %20, %._crit_edge.loopexit ], [ %8, %2 ]
  store i32 %21, ptr %7, align 8
  tail call void (ptr, ptr, ...) @_ZN12outputStream8print_crEPKcz(ptr noundef nonnull align 8 dereferenceable(56) %1, ptr noundef nonnull @.str.8) #9
  ret void
}